target datalayout = "e-m:e-p270:32:32-p271:32:32-p272:64:64-i64:64-i128:128-f80:128-n8:16:32:64-S128"
target triple = "x86_64-pc-linux-gnu"

%struct.libraw_decoder_info_t = type { ptr, i32 }

; Function Attrs: mustprogress uwtable
define noundef ptr @_ZN6LibRaw20unpack_function_nameEv(ptr noundef nonnull align 8 dereferenceable(767680) %0) #0 align 2 {
  %2 = alloca ptr, align 8
  %3 = alloca %struct.libraw_decoder_info_t, align 8
  store ptr %0, ptr %2, align 8, !tbaa !6
  %4 = load ptr, ptr %2, align 8
  call void @llvm.lifetime.start.p0(i64 16, ptr %3) #4
  %5 = load ptr, ptr %4, align 8, !tbaa !11
  %6 = getelementptr inbounds ptr, ptr %5, i64 6
  %7 = load ptr, ptr %6, align 8
  %8 = call noundef i32 %7(ptr noundef nonnull align 8 dereferenceable(767680) %4, ptr noundef %3)
  %9 = getelementptr inbounds nuw %struct.libraw_decoder_info_t, ptr %3, i32 0, i32 0
  %10 = load ptr, ptr %9, align 8, !tbaa !13
  call void @llvm.lifetime.end.p0(i64 16, ptr %3) #4
  ret ptr %10
}