; Function Attrs: mustprogress uwtable
define noundef ptr @_ZN6LibRaw20unpack_function_nameEv(ptr noundef nonnull align 8 dereferenceable(767680) %0) local_unnamed_addr #0 align 2 {
  %2 = alloca %struct.libraw_decoder_info_t, align 8
  call void @llvm.lifetime.start.p0(i64 16, ptr nonnull %2) #5
  %3 = load ptr, ptr %0, align 8, !tbaa !6
  %4 = getelementptr inbounds nuw i8, ptr %3, i64 48
  %5 = load ptr, ptr %4, align 8
  %6 = call noundef i32 %5(ptr noundef nonnull align 8 dereferenceable(767680) %0, ptr noundef nonnull %2)
  %7 = load ptr, ptr %2, align 8, !tbaa !9
  call void @llvm.lifetime.end.p0(i64 16, ptr nonnull %2) #5
  ret ptr %7
}